target datalayout = "e-m:e-p270:32:32-p271:32:32-p272:64:64-i64:64-i128:128-f80:128-n8:16:32:64-S128"
target triple = "x86_64-pc-linux-gnu"

%"class.std::basic_ostream" = type { ptr, %"class.std::basic_ios" }
%"class.std::basic_ios" = type { %"class.std::ios_base", ptr, i8, i8, ptr, ptr, ptr, ptr }
%"class.std::ios_base" = type { ptr, i64, i64, i32, i32, i32, ptr, %"struct.std::ios_base::_Words", [8 x %"struct.std::ios_base::_Words"], i32, ptr, %"class.std::locale" }
%"struct.std::ios_base::_Words" = type { ptr, i64 }
%"class.std::locale" = type { ptr }
%class.ref_buffer_core = type { %class.ref_manager_wrapper, %class.ptr_buffer }
%class.ref_manager_wrapper = type { ptr }
%class.ptr_buffer = type { %class.buffer }
%class.buffer = type { ptr, i32, i32, [256 x i8] }

@_ZSt4cout = external global %"class.std::basic_ostream", align 8

; Function Attrs: mustprogress uwtable
define available_externally noundef nonnull align 8 dereferenceable(8) ptr @_ZNSolsEPFRSoS_E(ptr noundef nonnull align 8 dereferenceable(8) %0, ptr noundef %1) #6 align 2 {
  %3 = alloca ptr, align 8
  %4 = alloca ptr, align 8
  store ptr %0, ptr %3, align 8, !tbaa !106
  store ptr %1, ptr %4, align 8, !tbaa !127
  %5 = load ptr, ptr %3, align 8
  %6 = load ptr, ptr %4, align 8, !tbaa !127
  %7 = call noundef nonnull align 8 dereferenceable(8) ptr %6(ptr noundef nonnull align 8 dereferenceable(8) %5)
  ret ptr %7
}

; Function Attrs: mustprogress nounwind uwtable
define linkonce_odr hidden noundef nonnull align 8 dereferenceable(8) ptr @_ZNK6bufferIPN11realclosure5valueELb0ELj32EEixEj(ptr noundef nonnull align 8 dereferenceable(272) %0, i32 noundef %1) #4 comdat align 2 {
  %3 = alloca ptr, align 8
  %4 = alloca i32, align 4
  store ptr %0, ptr %3, align 8, !tbaa !334
  store i32 %1, ptr %4, align 4, !tbaa !82
  %5 = load ptr, ptr %3, align 8
  %6 = getelementptr inbounds nuw %class.buffer, ptr %5, i32 0, i32 0
  %7 = load ptr, ptr %6, align 8, !tbaa !336
  %8 = load i32, ptr %4, align 4, !tbaa !82
  %9 = zext i32 %8 to i64
  %10 = getelementptr inbounds nuw ptr, ptr %7, i64 %9
  ret ptr %10
}

; Function Attrs: mustprogress nounwind uwtable
define linkonce_odr hidden noundef i32 @_ZNK6bufferIPN11realclosure5valueELb0ELj32EE4sizeEv(ptr noundef nonnull align 8 dereferenceable(272) %0) #4 comdat align 2 {
  %2 = alloca ptr, align 8
  store ptr %0, ptr %2, align 8, !tbaa !334
  %3 = load ptr, ptr %2, align 8
  %4 = getelementptr inbounds nuw %class.buffer, ptr %3, i32 0, i32 1
  %5 = load i32, ptr %4, align 8, !tbaa !338
  ret i32 %5
}

; Function Attrs: mustprogress uwtable
define hidden void @_Z2ppPN11realclosure7manager3impEPNS_5valueE(ptr noundef %0, ptr noundef %1) #6 {
  %3 = alloca ptr, align 8
  %4 = alloca ptr, align 8
  store ptr %0, ptr %3, align 8, !tbaa !28
  store ptr %1, ptr %4, align 8, !tbaa !99
  %5 = load ptr, ptr %3, align 8, !tbaa !28
  %6 = load ptr, ptr %4, align 8, !tbaa !99
  call void @_ZNK11realclosure7manager3imp7displayERSoPNS_5valueEbb(ptr noundef nonnull align 8 dereferenceable(1497) %5, ptr noundef nonnull align 8 dereferenceable(8) @_ZSt4cout, ptr noundef %6, i1 noundef zeroext false, i1 noundef zeroext false)
  %7 = call noundef nonnull align 8 dereferenceable(8) ptr @_ZNSolsEPFRSoS_E(ptr noundef nonnull align 8 dereferenceable(8) @_ZSt4cout, ptr noundef @_ZSt4endlIcSt11char_traitsIcEERSt13basic_ostreamIT_T0_ES6_)
  ret void
}

; Function Attrs: mustprogress uwtable
define linkonce_odr hidden noundef ptr @_ZNK15ref_buffer_coreIN11realclosure5valueE19ref_manager_wrapperIS1_NS0_7manager3impEELj32EEixEj(ptr noundef nonnull align 8 dereferenceable(280) %0, i32 noundef %1) #6 comdat align 2 {
  %3 = alloca ptr, align 8
  %4 = alloca i32, align 4
  store ptr %0, ptr %3, align 8, !tbaa !134
  store i32 %1, ptr %4, align 4, !tbaa !82
  %5 = load ptr, ptr %3, align 8
  %6 = getelementptr inbounds nuw %class.ref_buffer_core, ptr %5, i32 0, i32 1
  %7 = load i32, ptr %4, align 4, !tbaa !82
  %8 = call noundef nonnull align 8 dereferenceable(8) ptr @_ZNK6bufferIPN11realclosure5valueELb0ELj32EEixEj(ptr noundef nonnull align 8 dereferenceable(272) %6, i32 noundef %7)
  %9 = load ptr, ptr %8, align 8, !tbaa !99
  ret ptr %9
}

; Function Attrs: mustprogress nounwind uwtable
define linkonce_odr hidden noundef i32 @_ZNK15ref_buffer_coreIN11realclosure5valueE19ref_manager_wrapperIS1_NS0_7manager3impEELj32EE4sizeEv(ptr noundef nonnull align 8 dereferenceable(280) %0) #4 comdat align 2 {
  %2 = alloca ptr, align 8
  store ptr %0, ptr %2, align 8, !tbaa !134
  %3 = load ptr, ptr %2, align 8
  %4 = getelementptr inbounds nuw %class.ref_buffer_core, ptr %3, i32 0, i32 1
  %5 = call noundef i32 @_ZNK6bufferIPN11realclosure5valueELb0ELj32EE4sizeEv(ptr noundef nonnull align 8 dereferenceable(272) %4)
  ret i32 %5
}

; Function Attrs: mustprogress uwtable
define hidden void @_Z2ppPN11realclosure7manager3impERK10ref_bufferINS_5valueES1_Lj32EE(ptr noundef %0, ptr noundef nonnull align 8 dereferenceable(280) %1) #6 {
  %3 = alloca ptr, align 8
  %4 = alloca ptr, align 8
  %5 = alloca i32, align 4
  store ptr %0, ptr %3, align 8, !tbaa !28
  store ptr %1, ptr %4, align 8, !tbaa !131
  call void @llvm.lifetime.start.p0(i64 4, ptr %5) #3
  store i32 0, ptr %5, align 4, !tbaa !82
  br label %6

6:                                                ; preds = %17, %2
  %7 = load i32, ptr %5, align 4, !tbaa !82
  %8 = load ptr, ptr %4, align 8, !tbaa !131
  %9 = call noundef i32 @_ZNK15ref_buffer_coreIN11realclosure5valueE19ref_manager_wrapperIS1_NS0_7manager3impEELj32EE4sizeEv(ptr noundef nonnull align 8 dereferenceable(280) %8)
  %10 = icmp ult i32 %7, %9
  br i1 %10, label %12, label %11

11:                                               ; preds = %6
  call void @llvm.lifetime.end.p0(i64 4, ptr %5) #3
  br label %20

12:                                               ; preds = %6
  %13 = load ptr, ptr %3, align 8, !tbaa !28
  %14 = load ptr, ptr %4, align 8, !tbaa !131
  %15 = load i32, ptr %5, align 4, !tbaa !82
  %16 = call noundef ptr @_ZNK15ref_buffer_coreIN11realclosure5valueE19ref_manager_wrapperIS1_NS0_7manager3impEELj32EEixEj(ptr noundef nonnull align 8 dereferenceable(280) %14, i32 noundef %15)
  call void @_Z2ppPN11realclosure7manager3impEPNS_5valueE(ptr noundef %13, ptr noundef %16)
  br label %17

17:                                               ; preds = %12
  %18 = load i32, ptr %5, align 4, !tbaa !82
  %19 = add i32 %18, 1
  store i32 %19, ptr %5, align 4, !tbaa !82
  br label %6, !llvm.loop !133

20:                                               ; preds = %11
  ret void
}