; Function Attrs: mustprogress uwtable
define hidden void @_Z2ppPN11realclosure7manager3impERK10ref_bufferINS_5valueES1_Lj32EE(ptr noundef %0, ptr noundef nonnull readonly align 8 captures(none) dereferenceable(280) %1) local_unnamed_addr #5 {
  %3 = getelementptr inbounds nuw i8, ptr %1, i64 16
  %4 = load i32, ptr %3, align 8, !tbaa !126
  %.not = icmp eq i32 %4, 0
  br i1 %.not, label %._crit_edge, label %.lr.ph

.lr.ph:                                           ; preds = %2
  %5 = getelementptr inbounds nuw i8, ptr %1, i64 8
  br label %6

._crit_edge:                                      ; preds = %_Z2ppPN11realclosure7manager3impEPNS_5valueE.exit, %2
  ret void

6:                                                ; preds = %.lr.ph, %_Z2ppPN11realclosure7manager3impEPNS_5valueE.exit
  %indvars.iv = phi i64 [ 0, %.lr.ph ], [ %indvars.iv.next, %_Z2ppPN11realclosure7manager3impEPNS_5valueE.exit ]
  %7 = load ptr, ptr %5, align 8, !tbaa !124
  %8 = getelementptr inbounds nuw ptr, ptr %7, i64 %indvars.iv
  %9 = load ptr, ptr %8, align 8, !tbaa !99
  tail call void @_ZNK11realclosure7manager3imp7displayERSoPNS_5valueEbb(ptr noundef nonnull align 8 dereferenceable(1497) %0, ptr noundef nonnull align 8 dereferenceable(8) @_ZSt4cout, ptr noundef %9, i1 noundef zeroext false, i1 noundef zeroext false)
  %10 = load ptr, ptr @_ZSt4cout, align 8, !tbaa !55
  %11 = getelementptr i8, ptr %10, i64 -24
  %12 = load i64, ptr %11, align 8
  %gep = getelementptr i8, ptr getelementptr inbounds nuw (i8, ptr @_ZSt4cout, i64 240), i64 %12
  %13 = load ptr, ptr %gep, align 8, !tbaa !167
  %.not.i.i.i.i = icmp eq ptr %13, null
  br i1 %.not.i.i.i.i, label %14, label %_ZSt13__check_facetISt5ctypeIcEERKT_PS3_.exit.i.i.i

14:                                               ; preds = %6
  tail call void @_ZSt16__throw_bad_castv() #26
  unreachable

_ZSt13__check_facetISt5ctypeIcEERKT_PS3_.exit.i.i.i: ; preds = %6
  %15 = getelementptr inbounds nuw i8, ptr %13, i64 56
  %16 = load i8, ptr %15, align 8, !tbaa !182
  %.not.i1.i.i.i = icmp eq i8 %16, 0
  br i1 %.not.i1.i.i.i, label %20, label %17

17:                                               ; preds = %_ZSt13__check_facetISt5ctypeIcEERKT_PS3_.exit.i.i.i
  %18 = getelementptr inbounds nuw i8, ptr %13, i64 67
  %19 = load i8, ptr %18, align 1, !tbaa !10
  br label %_Z2ppPN11realclosure7manager3impEPNS_5valueE.exit

20:                                               ; preds = %_ZSt13__check_facetISt5ctypeIcEERKT_PS3_.exit.i.i.i
  tail call void @_ZNKSt5ctypeIcE13_M_widen_initEv(ptr noundef nonnull align 8 dereferenceable(570) %13)
  %21 = load ptr, ptr %13, align 8, !tbaa !55
  %22 = getelementptr inbounds nuw i8, ptr %21, i64 48
  %23 = load ptr, ptr %22, align 8
  %24 = tail call noundef signext i8 %23(ptr noundef nonnull align 8 dereferenceable(570) %13, i8 noundef signext 10)
  br label %_Z2ppPN11realclosure7manager3impEPNS_5valueE.exit

_Z2ppPN11realclosure7manager3impEPNS_5valueE.exit: ; preds = %17, %20
  %.0.i.i.i.i = phi i8 [ %19, %17 ], [ %24, %20 ]
  %25 = tail call noundef nonnull align 8 dereferenceable(8) ptr @_ZNSo3putEc(ptr noundef nonnull align 8 dereferenceable(8) @_ZSt4cout, i8 noundef signext %.0.i.i.i.i)
  %26 = tail call noundef nonnull align 8 dereferenceable(8) ptr @_ZNSo5flushEv(ptr noundef nonnull align 8 dereferenceable(8) %25)
  %indvars.iv.next = add nuw nsw i64 %indvars.iv, 1
  %27 = load i32, ptr %3, align 8, !tbaa !126
  %28 = zext i32 %27 to i64
  %29 = icmp samesign ult i64 %indvars.iv.next, %28
  br i1 %29, label %6, label %._crit_edge, !llvm.loop !189
}